target datalayout = "e-m:e-p270:32:32-p271:32:32-p272:64:64-i64:64-i128:128-f80:128-n8:16:32:64-S128"
target triple = "x86_64-pc-linux-gnu"

%struct.AVRational = type { i32, i32 }
%struct.AVChannelLayout = type { i32, i32, %union.anon.1, ptr }
%union.anon.1 = type { i64 }
%struct.TiffContext = type { ptr, ptr, %struct.GetByteContext, ptr, ptr, ptr, i32, i16, i32, i32, i32, i32, i32, i32, [256 x i32], i32, i32, i32, i32, i32, [2 x i32], i32, i32, i32, [4 x i32], i32, i32, i32, i32, [4 x i8], [4 x float], [4 x float], [4 x float], [3 x [4 x float]], [4 x [4 x float]], [4 x float], [4 x float], i32, [65536 x i16], i32, i16, i32, i32, i32, i32, i32, i32, i32, i32, ptr, i32, i32, i32, i32, i32, i32, ptr, i32, ptr, i32, i32, ptr }
%struct.GetByteContext = type { ptr, ptr, ptr }
%struct.AVFrame = type { [8 x ptr], [8 x i32], ptr, i32, i32, i32, i32, i32, %struct.AVRational, i64, i64, %struct.AVRational, i32, ptr, i32, i32, [8 x ptr], ptr, i32, ptr, i32, i32, i32, i32, i32, i32, i32, i64, ptr, i32, ptr, ptr, i64, i64, i64, i64, ptr, %struct.AVChannelLayout, i64 }

; Function Attrs: nounwind uwtable
define internal i32 @add_metadata(i32 noundef %0, i32 noundef %1, ptr noundef %2, ptr noundef %3, ptr noundef %4, ptr noundef %5) #1 {
  %7 = alloca i32, align 4
  %8 = alloca i32, align 4
  %9 = alloca i32, align 4
  %10 = alloca ptr, align 8
  %11 = alloca ptr, align 8
  %12 = alloca ptr, align 8
  %13 = alloca ptr, align 8
  store i32 %0, ptr %8, align 4, !tbaa !39
  store i32 %1, ptr %9, align 4, !tbaa !39
  store ptr %2, ptr %10, align 8, !tbaa !92
  store ptr %3, ptr %11, align 8, !tbaa !92
  store ptr %4, ptr %12, align 8, !tbaa !29
  store ptr %5, ptr %13, align 8, !tbaa !49
  %14 = load i32, ptr %9, align 4, !tbaa !39
  switch i32 %14, label %50 [
    i32 12, label %15
    i32 3, label %27
    i32 2, label %39
  ]

15:                                               ; preds = %6
  %16 = load i32, ptr %8, align 4, !tbaa !39
  %17 = load ptr, ptr %10, align 8, !tbaa !92
  %18 = load ptr, ptr %11, align 8, !tbaa !92
  %19 = load ptr, ptr %12, align 8, !tbaa !29
  %20 = getelementptr inbounds nuw %struct.TiffContext, ptr %19, i32 0, i32 2
  %21 = load ptr, ptr %12, align 8, !tbaa !29
  %22 = getelementptr inbounds nuw %struct.TiffContext, ptr %21, i32 0, i32 16
  %23 = load i32, ptr %22, align 4, !tbaa !55
  %24 = load ptr, ptr %13, align 8, !tbaa !49
  %25 = getelementptr inbounds nuw %struct.AVFrame, ptr %24, i32 0, i32 28
  %26 = call i32 @ff_tadd_doubles_metadata(i32 noundef %16, ptr noundef %17, ptr noundef %18, ptr noundef %20, i32 noundef %23, ptr noundef %25)
  store i32 %26, ptr %7, align 4
  br label %51

27:                                               ; preds = %6
  %28 = load i32, ptr %8, align 4, !tbaa !39
  %29 = load ptr, ptr %10, align 8, !tbaa !92
  %30 = load ptr, ptr %11, align 8, !tbaa !92
  %31 = load ptr, ptr %12, align 8, !tbaa !29
  %32 = getelementptr inbounds nuw %struct.TiffContext, ptr %31, i32 0, i32 2
  %33 = load ptr, ptr %12, align 8, !tbaa !29
  %34 = getelementptr inbounds nuw %struct.TiffContext, ptr %33, i32 0, i32 16
  %35 = load i32, ptr %34, align 4, !tbaa !55
  %36 = load ptr, ptr %13, align 8, !tbaa !49
  %37 = getelementptr inbounds nuw %struct.AVFrame, ptr %36, i32 0, i32 28
  %38 = call i32 @ff_tadd_shorts_metadata(i32 noundef %28, ptr noundef %29, ptr noundef %30, ptr noundef %32, i32 noundef %35, i32 noundef 0, ptr noundef %37)
  store i32 %38, ptr %7, align 4
  br label %51

39:                                               ; preds = %6
  %40 = load i32, ptr %8, align 4, !tbaa !39
  %41 = load ptr, ptr %10, align 8, !tbaa !92
  %42 = load ptr, ptr %12, align 8, !tbaa !29
  %43 = getelementptr inbounds nuw %struct.TiffContext, ptr %42, i32 0, i32 2
  %44 = load ptr, ptr %12, align 8, !tbaa !29
  %45 = getelementptr inbounds nuw %struct.TiffContext, ptr %44, i32 0, i32 16
  %46 = load i32, ptr %45, align 4, !tbaa !55
  %47 = load ptr, ptr %13, align 8, !tbaa !49
  %48 = getelementptr inbounds nuw %struct.AVFrame, ptr %47, i32 0, i32 28
  %49 = call i32 @ff_tadd_string_metadata(i32 noundef %40, ptr noundef %41, ptr noundef %43, i32 noundef %46, ptr noundef %48)
  store i32 %49, ptr %7, align 4
  br label %51

50:                                               ; preds = %6
  store i32 -1094995529, ptr %7, align 4
  br label %51

51:                                               ; preds = %50, %39, %27, %15
  %52 = load i32, ptr %7, align 4
  ret i32 %52
}