; Function Attrs: nounwind uwtable
define internal fastcc i32 @add_metadata(i32 noundef %0, i32 noundef %1, ptr noundef %2, ptr noundef %3, ptr noundef %4, ptr noundef %5) unnamed_addr #1 {
  switch i32 %1, label %25 [
    i32 12, label %7
    i32 3, label %13
    i32 2, label %19
  ]

7:                                                ; preds = %6
  %8 = getelementptr inbounds nuw i8, ptr %4, i64 16
  %9 = getelementptr inbounds nuw i8, ptr %4, i64 1124
  %10 = load i32, ptr %9, align 4, !tbaa !52
  %11 = getelementptr inbounds nuw i8, ptr %5, i64 312
  %12 = tail call i32 @ff_tadd_doubles_metadata(i32 noundef %0, ptr noundef %2, ptr noundef %3, ptr noundef nonnull %8, i32 noundef %10, ptr noundef nonnull %11) #16
  br label %25

13:                                               ; preds = %6
  %14 = getelementptr inbounds nuw i8, ptr %4, i64 16
  %15 = getelementptr inbounds nuw i8, ptr %4, i64 1124
  %16 = load i32, ptr %15, align 4, !tbaa !52
  %17 = getelementptr inbounds nuw i8, ptr %5, i64 312
  %18 = tail call i32 @ff_tadd_shorts_metadata(i32 noundef %0, ptr noundef %2, ptr noundef %3, ptr noundef nonnull %14, i32 noundef %16, i32 noundef 0, ptr noundef nonnull %17) #16
  br label %25

19:                                               ; preds = %6
  %20 = getelementptr inbounds nuw i8, ptr %4, i64 16
  %21 = getelementptr inbounds nuw i8, ptr %4, i64 1124
  %22 = load i32, ptr %21, align 4, !tbaa !52
  %23 = getelementptr inbounds nuw i8, ptr %5, i64 312
  %24 = tail call i32 @ff_tadd_string_metadata(i32 noundef %0, ptr noundef %2, ptr noundef nonnull %20, i32 noundef %22, ptr noundef nonnull %23) #16
  br label %25

25:                                               ; preds = %6, %19, %13, %7
  %.0 = phi i32 [ %24, %19 ], [ %18, %13 ], [ %12, %7 ], [ -1094995529, %6 ]
  ret i32 %.0
}